target datalayout = "e-m:e-p270:32:32-p271:32:32-p272:64:64-i64:64-i128:128-f80:128-n8:16:32:64-S128"
target triple = "x86_64-pc-linux-gnu"

%struct.blob = type { ptr, ptr, i64, i64, i32 }
%struct.fileblob = type { ptr, i32, %struct.blob, ptr, ptr, i64, i8 }

@.str.2 = private unnamed_addr constant [108 x i8] c"generated/home/dtcxzyw/WorkSpace/Projects/compilers/llvm-opt-benchmark/bench/clamav/clamav/libclamav/blob.c\00", align 1
@.str.18 = private unnamed_addr constant [11 x i8] c"fb != NULL\00", align 1
@__PRETTY_FUNCTION__.fileblobDestroy = private unnamed_addr constant [33 x i8] c"void fileblobDestroy(fileblob *)\00", align 1
@.str.19 = private unnamed_addr constant [21 x i8] c"fileblobDestroy: %s\0A\00", align 1
@.str.20 = private unnamed_addr constant [40 x i8] c"fileblobDestroy: not saving empty file\0A\00", align 1
@.str.21 = private unnamed_addr constant [19 x i8] c"fb->b.data == NULL\00", align 1
@.str.22 = private unnamed_addr constant [87 x i8] c"fileblobDestroy: %s not saved: report to https://github.com/Cisco-Talos/clamav/issues\0A\00", align 1
@.str.23 = private unnamed_addr constant [101 x i8] c"fileblobDestroy: file not saved (%lu bytes): report to https://github.com/Cisco-Talos/clamav/issues\0A\00", align 1

; Function Attrs: nounwind uwtable
define void @fileblobDestroy(ptr noundef %0) #0 {
  %2 = alloca ptr, align 8
  store ptr %0, ptr %2, align 8
  %3 = load ptr, ptr %2, align 8
  %4 = icmp ne ptr %3, null
  br i1 %4, label %5, label %6

5:                                                ; preds = %1
  br label %7

6:                                                ; preds = %1
  call void @__assert_fail(ptr noundef @.str.18, ptr noundef @.str.2, i32 noundef 463, ptr noundef @__PRETTY_FUNCTION__.fileblobDestroy) #8
  unreachable

7:                                                ; preds = %5
  %8 = load ptr, ptr %2, align 8
  %9 = getelementptr inbounds %struct.fileblob, ptr %8, i32 0, i32 2
  %10 = getelementptr inbounds %struct.blob, ptr %9, i32 0, i32 0
  %11 = load ptr, ptr %10, align 8
  %12 = icmp ne ptr %11, null
  br i1 %12, label %13, label %56

13:                                               ; preds = %7
  %14 = load ptr, ptr %2, align 8
  %15 = getelementptr inbounds %struct.fileblob, ptr %14, i32 0, i32 0
  %16 = load ptr, ptr %15, align 8
  %17 = icmp ne ptr %16, null
  br i1 %17, label %18, label %56

18:                                               ; preds = %13
  %19 = load ptr, ptr %2, align 8
  %20 = getelementptr inbounds %struct.fileblob, ptr %19, i32 0, i32 0
  %21 = load ptr, ptr %20, align 8
  %22 = call i32 @fclose(ptr noundef %21)
  %23 = load ptr, ptr %2, align 8
  %24 = getelementptr inbounds %struct.fileblob, ptr %23, i32 0, i32 3
  %25 = load ptr, ptr %24, align 8
  %26 = icmp ne ptr %25, null
  br i1 %26, label %27, label %43

27:                                               ; preds = %18
  %28 = load ptr, ptr %2, align 8
  %29 = getelementptr inbounds %struct.fileblob, ptr %28, i32 0, i32 3
  %30 = load ptr, ptr %29, align 8
  call void (ptr, ...) @cli_dbgmsg(ptr noundef @.str.19, ptr noundef %30)
  %31 = load ptr, ptr %2, align 8
  %32 = getelementptr inbounds %struct.fileblob, ptr %31, i32 0, i32 6
  %33 = load i8, ptr %32, align 8
  %34 = and i8 %33, 1
  %35 = zext i8 %34 to i32
  %36 = icmp ne i32 %35, 0
  br i1 %36, label %42, label %37

37:                                               ; preds = %27
  call void (ptr, ...) @cli_dbgmsg(ptr noundef @.str.20)
  %38 = load ptr, ptr %2, align 8
  %39 = getelementptr inbounds %struct.fileblob, ptr %38, i32 0, i32 3
  %40 = load ptr, ptr %39, align 8
  %41 = call i32 @cli_unlink(ptr noundef %40)
  br label %42

42:                                               ; preds = %37, %27
  br label %43

43:                                               ; preds = %42, %18
  %44 = load ptr, ptr %2, align 8
  %45 = getelementptr inbounds %struct.fileblob, ptr %44, i32 0, i32 2
  %46 = getelementptr inbounds %struct.blob, ptr %45, i32 0, i32 0
  %47 = load ptr, ptr %46, align 8
  call void @free(ptr noundef %47) #9
  %48 = load ptr, ptr %2, align 8
  %49 = getelementptr inbounds %struct.fileblob, ptr %48, i32 0, i32 2
  %50 = getelementptr inbounds %struct.blob, ptr %49, i32 0, i32 1
  %51 = load ptr, ptr %50, align 8
  %52 = icmp eq ptr %51, null
  br i1 %52, label %53, label %54

53:                                               ; preds = %43
  br label %55

54:                                               ; preds = %43
  call void @__assert_fail(ptr noundef @.str.21, ptr noundef @.str.2, i32 noundef 479, ptr noundef @__PRETTY_FUNCTION__.fileblobDestroy) #8
  unreachable

55:                                               ; preds = %53
  br label %99

56:                                               ; preds = %13, %7
  %57 = load ptr, ptr %2, align 8
  %58 = getelementptr inbounds %struct.fileblob, ptr %57, i32 0, i32 2
  %59 = getelementptr inbounds %struct.blob, ptr %58, i32 0, i32 1
  %60 = load ptr, ptr %59, align 8
  %61 = icmp ne ptr %60, null
  br i1 %61, label %62, label %98

62:                                               ; preds = %56
  %63 = load ptr, ptr %2, align 8
  %64 = getelementptr inbounds %struct.fileblob, ptr %63, i32 0, i32 2
  %65 = getelementptr inbounds %struct.blob, ptr %64, i32 0, i32 1
  %66 = load ptr, ptr %65, align 8
  call void @free(ptr noundef %66) #9
  %67 = load ptr, ptr %2, align 8
  %68 = getelementptr inbounds %struct.fileblob, ptr %67, i32 0, i32 2
  %69 = getelementptr inbounds %struct.blob, ptr %68, i32 0, i32 0
  %70 = load ptr, ptr %69, align 8
  %71 = icmp ne ptr %70, null
  br i1 %71, label %72, label %92

72:                                               ; preds = %62
  %73 = load ptr, ptr %2, align 8
  %74 = getelementptr inbounds %struct.fileblob, ptr %73, i32 0, i32 3
  %75 = load ptr, ptr %74, align 8
  %76 = icmp ne ptr %75, null
  br i1 %76, label %77, label %81

77:                                               ; preds = %72
  %78 = load ptr, ptr %2, align 8
  %79 = getelementptr inbounds %struct.fileblob, ptr %78, i32 0, i32 3
  %80 = load ptr, ptr %79, align 8
  br label %86

81:                                               ; preds = %72
  %82 = load ptr, ptr %2, align 8
  %83 = getelementptr inbounds %struct.fileblob, ptr %82, i32 0, i32 2
  %84 = getelementptr inbounds %struct.blob, ptr %83, i32 0, i32 0
  %85 = load ptr, ptr %84, align 8
  br label %86

86:                                               ; preds = %81, %77
  %87 = phi ptr [ %80, %77 ], [ %85, %81 ]
  call void (ptr, ...) @cli_errmsg(ptr noundef @.str.22, ptr noundef %87)
  %88 = load ptr, ptr %2, align 8
  %89 = getelementptr inbounds %struct.fileblob, ptr %88, i32 0, i32 2
  %90 = getelementptr inbounds %struct.blob, ptr %89, i32 0, i32 0
  %91 = load ptr, ptr %90, align 8
  call void @free(ptr noundef %91) #9
  br label %97

92:                                               ; preds = %62
  %93 = load ptr, ptr %2, align 8
  %94 = getelementptr inbounds %struct.fileblob, ptr %93, i32 0, i32 2
  %95 = getelementptr inbounds %struct.blob, ptr %94, i32 0, i32 2
  %96 = load i64, ptr %95, align 8
  call void (ptr, ...) @cli_errmsg(ptr noundef @.str.23, i64 noundef %96)
  br label %97

97:                                               ; preds = %92, %86
  br label %98

98:                                               ; preds = %97, %56
  br label %99

99:                                               ; preds = %98, %55
  %100 = load ptr, ptr %2, align 8
  %101 = getelementptr inbounds %struct.fileblob, ptr %100, i32 0, i32 3
  %102 = load ptr, ptr %101, align 8
  %103 = icmp ne ptr %102, null
  br i1 %103, label %104, label %108

104:                                              ; preds = %99
  %105 = load ptr, ptr %2, align 8
  %106 = getelementptr inbounds %struct.fileblob, ptr %105, i32 0, i32 3
  %107 = load ptr, ptr %106, align 8
  call void @free(ptr noundef %107) #9
  br label %108

108:                                              ; preds = %104, %99
  %109 = load ptr, ptr %2, align 8
  call void @free(ptr noundef %109) #9
  ret void
}