; Function Attrs: nounwind uwtable
define void @fileblobDestroy(ptr noundef %0) local_unnamed_addr #2 {
  %.not = icmp eq ptr %0, null
  br i1 %.not, label %2, label %3

2:                                                ; preds = %1
  tail call void @__assert_fail(ptr noundef nonnull @.str.18, ptr noundef nonnull @.str.2, i32 noundef 463, ptr noundef nonnull @__PRETTY_FUNCTION__.fileblobDestroy) #17
  unreachable

3:                                                ; preds = %1
  %4 = getelementptr inbounds i8, ptr %0, i64 16
  %5 = load ptr, ptr %4, align 8
  %.not27 = icmp eq ptr %5, null
  br i1 %.not27, label %25, label %6

6:                                                ; preds = %3
  %7 = load ptr, ptr %0, align 8
  %.not28 = icmp eq ptr %7, null
  br i1 %.not28, label %25, label %8

8:                                                ; preds = %6
  %9 = tail call i32 @fclose(ptr noundef nonnull %7)
  %10 = getelementptr inbounds i8, ptr %0, i64 56
  %11 = load ptr, ptr %10, align 8
  %.not32 = icmp eq ptr %11, null
  br i1 %.not32, label %19, label %12

12:                                               ; preds = %8
  tail call void (ptr, ...) @cli_dbgmsg(ptr noundef nonnull @.str.19, ptr noundef nonnull %11) #16
  %13 = getelementptr inbounds i8, ptr %0, i64 80
  %14 = load i8, ptr %13, align 8
  %15 = and i8 %14, 1
  %.not33 = icmp eq i8 %15, 0
  br i1 %.not33, label %16, label %19

16:                                               ; preds = %12
  tail call void (ptr, ...) @cli_dbgmsg(ptr noundef nonnull @.str.20) #16
  %17 = load ptr, ptr %10, align 8
  %18 = tail call i32 @cli_unlink(ptr noundef %17) #16
  br label %19

19:                                               ; preds = %12, %16, %8
  %20 = load ptr, ptr %4, align 8
  tail call void @free(ptr noundef %20) #16
  %21 = getelementptr inbounds i8, ptr %0, i64 24
  %22 = load ptr, ptr %21, align 8
  %23 = icmp eq ptr %22, null
  br i1 %23, label %37, label %24

24:                                               ; preds = %19
  tail call void @__assert_fail(ptr noundef nonnull @.str.21, ptr noundef nonnull @.str.2, i32 noundef 479, ptr noundef nonnull @__PRETTY_FUNCTION__.fileblobDestroy) #17
  unreachable

25:                                               ; preds = %6, %3
  %26 = getelementptr inbounds i8, ptr %0, i64 24
  %27 = load ptr, ptr %26, align 8
  %.not29 = icmp eq ptr %27, null
  br i1 %.not29, label %37, label %28

28:                                               ; preds = %25
  tail call void @free(ptr noundef nonnull %27) #16
  %29 = load ptr, ptr %4, align 8
  %.not30 = icmp eq ptr %29, null
  br i1 %.not30, label %34, label %30

30:                                               ; preds = %28
  %31 = getelementptr inbounds i8, ptr %0, i64 56
  %32 = load ptr, ptr %31, align 8
  %.not31 = icmp eq ptr %32, null
  %. = select i1 %.not31, ptr %29, ptr %32
  tail call void (ptr, ...) @cli_errmsg(ptr noundef nonnull @.str.22, ptr noundef nonnull %.) #16
  %33 = load ptr, ptr %4, align 8
  tail call void @free(ptr noundef %33) #16
  br label %37

34:                                               ; preds = %28
  %35 = getelementptr inbounds i8, ptr %0, i64 32
  %36 = load i64, ptr %35, align 8
  tail call void (ptr, ...) @cli_errmsg(ptr noundef nonnull @.str.23, i64 noundef %36) #16
  br label %37

37:                                               ; preds = %25, %34, %30, %19
  %38 = getelementptr inbounds i8, ptr %0, i64 56
  %39 = load ptr, ptr %38, align 8
  %.not34 = icmp eq ptr %39, null
  br i1 %.not34, label %41, label %40

40:                                               ; preds = %37
  tail call void @free(ptr noundef nonnull %39) #16
  br label %41

41:                                               ; preds = %40, %37
  tail call void @free(ptr noundef nonnull %0) #16
  ret void
}